; Function Attrs: mustprogress uwtable
define noundef ptr @_ZNK6icu_7714TimeZoneFormat5parseE20UTimeZoneFormatStyleRKNS_13UnicodeStringERNS_13ParsePositionEP23UTimeZoneFormatTimeType(ptr noundef nonnull align 8 dereferenceable(1024) %0, i32 noundef %1, ptr noundef nonnull align 8 dereferenceable(64) %2, ptr noundef nonnull align 8 dereferenceable(16) %3, ptr noundef %4) local_unnamed_addr #1 align 2 {
  %6 = getelementptr inbounds nuw i8, ptr %0, i64 824
  %7 = load i32, ptr %6, align 8, !tbaa !26
  %8 = load ptr, ptr %0, align 8, !tbaa !15
  %9 = getelementptr inbounds nuw i8, ptr %8, i64 72
  %10 = load ptr, ptr %9, align 8
  %11 = tail call noundef ptr %10(ptr noundef nonnull align 8 dereferenceable(1024) %0, i32 noundef %1, ptr noundef nonnull align 8 dereferenceable(64) %2, ptr noundef nonnull align 8 dereferenceable(16) %3, i32 noundef %7, ptr noundef %4)
  ret ptr %11
}